(dp1
S'output'
p2
S"<type 'exceptions.ValueError'> invalid literal for long() with base 10: '${time.id}'"
p3
sS'layer'
p4
S'/home/ryan/web2py/applications/barber_shop_2/controllers/api.py'
p5
sS'code'
p6
S'<code object <module> at 0x7f3c8c3bef30, file "/home/ryan/web2py/applications/barber_shop_2/controllers/api.py", line 1>'
p7
sS'snapshot'
p8
(dp9
S'exception'
p10
(dp11
S'__getslice__'
p12
S"<method-wrapper '__getslice__' of exceptions.ValueError object>"
p13
sS'__str__'
p14
S"<method-wrapper '__str__' of exceptions.ValueError object>"
p15
sS'__reduce__'
p16
S'<built-in method __reduce__ of exceptions.ValueError object>'
p17
sS'__dict__'
p18
S'{}'
p19
sS'message'
p20
S'"invalid literal for long() with base 10: \'${time.id}\'"'
p21
sS'__sizeof__'
p22
S'<built-in method __sizeof__ of exceptions.ValueError object>'
p23
sS'__init__'
p24
S"<method-wrapper '__init__' of exceptions.ValueError object>"
p25
sS'__setattr__'
p26
S"<method-wrapper '__setattr__' of exceptions.ValueError object>"
p27
sS'__reduce_ex__'
p28
S'<built-in method __reduce_ex__ of exceptions.ValueError object>'
p29
sS'__new__'
p30
S'<built-in method __new__ of type object>'
p31
sS'__format__'
p32
S'<built-in method __format__ of exceptions.ValueError object>'
p33
sS'__class__'
p34
S"<type 'exceptions.ValueError'>"
p35
sS'__doc__'
p36
S"'Inappropriate argument value (of correct type).'"
p37
sS'__getitem__'
p38
S"<method-wrapper '__getitem__' of exceptions.ValueError object>"
p39
sS'__setstate__'
p40
S'<built-in method __setstate__ of exceptions.ValueError object>'
p41
sS'__getattribute__'
p42
S"<method-wrapper '__getattribute__' of exceptions.ValueError object>"
p43
sS'args'
p44
S'("invalid literal for long() with base 10: \'${time.id}\'",)'
p45
sS'__subclasshook__'
p46
S'<built-in method __subclasshook__ of type object>'
p47
sS'__unicode__'
p48
S'<built-in method __unicode__ of exceptions.ValueError object>'
p49
sS'__delattr__'
p50
S"<method-wrapper '__delattr__' of exceptions.ValueError object>"
p51
sS'__repr__'
p52
S"<method-wrapper '__repr__' of exceptions.ValueError object>"
p53
sS'__hash__'
p54
S"<method-wrapper '__hash__' of exceptions.ValueError object>"
p55
ssS'evalue'
p56
S"invalid literal for long() with base 10: '${time.id}'"
p57
sS'request'
p58
cgluon.html
XML_unpickle
p59
(S'sVa\x00\x00<div><table><tr><td style="font-weight:bold;vertical-align:top;">ajax</td><td style="vertical-align:top;">:</td><td><div>True</div></td></tr><tr><td style="font-weight:bold;vertical-align:top;">application</td><td style="vertical-align:top;">:</td><td><div>barber_shop_2</div></td></tr><tr><td style="font-weight:bold;vertical-align:top;">args</td><td style="vertical-align:top;">:</td><td><div><table></table></div></td></tr><tr><td style="font-weight:bold;vertical-align:top;">cid</td><td style="vertical-align:top;">:</td><td><div>None</div></td></tr><tr><td style="font-weight:bold;vertical-align:top;">client</td><td style="vertical-align:top;">:</td><td><div>127.0.0.1</div></td></tr><tr><td style="font-weight:bold;vertical-align:top;">controller</td><td style="vertical-align:top;">:</td><td><div>api</div></td></tr><tr><td style="font-weight:bold;vertical-align:top;">cookies</td><td style="vertical-align:top;">:</td><td><div><table><tr><td style="font-weight:bold;vertical-align:top;">session_id_admin</td><td style="vertical-align:top;">:</td><td><div>127.0.0.1-64515dc9-0486-4dfe-aed2-bd34f6642b08<table><tr><td style="font-weight:bold;vertical-align:top;">comment</td><td style="vertical-align:top;">:</td><td><div></div></td></tr><tr><td style="font-weight:bold;vertical-align:top;">domain</td><td style="vertical-align:top;">:</td><td><div></div></td></tr><tr><td style="font-weight:bold;vertical-align:top;">expires</td><td style="vertical-align:top;">:</td><td><div></div></td></tr><tr><td style="font-weight:bold;vertical-align:top;">httponly</td><td style="vertical-align:top;">:</td><td><div></div></td></tr><tr><td style="font-weight:bold;vertical-align:top;">max-age</td><td style="vertical-align:top;">:</td><td><div></div></td></tr><tr><td style="font-weight:bold;vertical-align:top;">path</td><td style="vertical-align:top;">:</td><td><div></div></td></tr><tr><td style="font-weight:bold;vertical-align:top;">secure</td><td style="vertical-align:top;">:</td><td><div></div></td></tr><tr><td style="font-weight:bold;vertical-align:top;">version</td><td style="vertical-align:top;">:</td><td><div></div></td></tr></table></div></td></tr><tr><td style="font-weight:bold;vertical-align:top;">session_id_barber_shop_2</td><td style="vertical-align:top;">:</td><td><div>127.0.0.1-bb0bc4f2-823e-4130-864d-2b98f56a7a14<table><tr><td style="font-weight:bold;vertical-align:top;">comment</td><td style="vertical-align:top;">:</td><td><div></div></td></tr><tr><td style="font-weight:bold;vertical-align:top;">domain</td><td style="vertical-align:top;">:</td><td><div></div></td></tr><tr><td style="font-weight:bold;vertical-align:top;">expires</td><td style="vertical-align:top;">:</td><td><div></div></td></tr><tr><td style="font-weight:bold;vertical-align:top;">httponly</td><td style="vertical-align:top;">:</td><td><div></div></td></tr><tr><td style="font-weight:bold;vertical-align:top;">max-age</td><td style="vertical-align:top;">:</td><td><div></div></td></tr><tr><td style="font-weight:bold;vertical-align:top;">path</td><td style="vertical-align:top;">:</td><td><div></div></td></tr><tr><td style="font-weight:bold;vertical-align:top;">secure</td><td style="vertical-align:top;">:</td><td><div></div></td></tr><tr><td style="font-weight:bold;vertical-align:top;">version</td><td style="vertical-align:top;">:</td><td><div></div></td></tr></table></div></td></tr><tr><td style="font-weight:bold;vertical-align:top;">session_id_welcome</td><td style="vertical-align:top;">:</td><td><div>127.0.0.1-5b9ef61b-6889-4770-8edd-808aaf4ad2a1<table><tr><td style="font-weight:bold;vertical-align:top;">comment</td><td style="vertical-align:top;">:</td><td><div></div></td></tr><tr><td style="font-weight:bold;vertical-align:top;">domain</td><td style="vertical-align:top;">:</td><td><div></div></td></tr><tr><td style="font-weight:bold;vertical-align:top;">expires</td><td style="vertical-align:top;">:</td><td><div></div></td></tr><tr><td style="font-weight:bold;vertical-align:top;">httponly</td><td style="vertical-align:top;">:</td><td><div></div></td></tr><tr><td style="font-weight:bold;vertical-align:top;">max-age</td><td style="vertical-align:top;">:</td><td><div></div></td></tr><tr><td style="font-weight:bold;vertical-align:top;">path</td><td style="vertical-align:top;">:</td><td><div></div></td></tr><tr><td style="font-weight:bold;vertical-align:top;">secure</td><td style="vertical-align:top;">:</td><td><div></div></td></tr><tr><td style="font-weight:bold;vertical-align:top;">version</td><td style="vertical-align:top;">:</td><td><div></div></td></tr></table></div></td></tr></table></div></td></tr><tr><td style="font-weight:bold;vertical-align:top;">env</td><td style="vertical-align:top;">:</td><td><div><table><tr><td style="font-weight:bold;vertical-align:top;">CONTENT_LENGTH</td><td style="vertical-align:top;">:</td><td><div>292</div></td></tr><tr><td style="font-weight:bold;vertical-align:top;">CONTENT_TYPE</td><td style="vertical-align:top;">:</td><td><div>application/x-www-form-urlencoded; charset=UTF-8</div></td></tr><tr><td style="font-weight:bold;vertical-align:top;">HTTP_ACCEPT</td><td style="vertical-align:top;">:</td><td><div>*/*</div></td></tr><tr><td style="font-weight:bold;vertical-align:top;">HTTP_ACCEPT_ENCODING</td><td style="vertical-align:top;">:</td><td><div>gzip, deflate</div></td></tr><tr><td style="font-weight:bold;vertical-align:top;">HTTP_ACCEPT_LANGUAGE</td><td style="vertical-align:top;">:</td><td><div>en-US,en;q=0.5</div></td></tr><tr><td style="font-weight:bold;vertical-align:top;">HTTP_CONNECTION</td><td style="vertical-align:top;">:</td><td><div>keep-alive</div></td></tr><tr><td style="font-weight:bold;vertical-align:top;">HTTP_CONTENT_LENGTH</td><td style="vertical-align:top;">:</td><td><div>292</div></td></tr><tr><td style="font-weight:bold;vertical-align:top;">HTTP_CONTENT_TYPE</td><td style="vertical-align:top;">:</td><td><div>application/x-www-form-urlencoded; charset=UTF-8</div></td></tr><tr><td style="font-weight:bold;vertical-align:top;">HTTP_COOKIE</td><td style="vertical-align:top;">:</td><td><div>session_id_welcome=127.0.0.1-5b9ef61b-6889-4770-8edd-808aaf4ad2a1; session_id_admin=127.0.0.1-64515dc9-0486-4dfe-aed2-bd34f6642b08; session_id_barber_shop_2=127.0.0.1-bb0bc4f2-823e-4130-864d-2b98f56a7a14</div></td></tr><tr><td style="font-weight:bold;vertical-align:top;">HTTP_HOST</td><td style="vertical-align:top;">:</td><td><div>127.0.0.1:8000</div></td></tr><tr><td style="font-weight:bold;vertical-align:top;">HTTP_REFERER</td><td style="vertical-align:top;">:</td><td><div>http://127.0.0.1:8000/barber_shop_2/default/index</div></td></tr><tr><td style="font-weight:bold;vertical-align:top;">HTTP_USER_AGENT</td><td style="vertical-align:top;">:</td><td><div>Mozilla/5.0 (X11; Ubuntu; Linux x86_64; rv:63.0) Gecko/20100101 Firefox/63.0</div></td></tr><tr><td style="font-weight:bold;vertical-align:top;">HTTP_X_REQUESTED_WITH</td><td style="vertical-align:top;">:</td><td><div>XMLHttpRequest</div></td></tr><tr><td style="font-weight:bold;vertical-align:top;">PATH_INFO</td><td style="vertical-align:top;">:</td><td><div>/barber_shop_2/api/make_appointment_api</div></td></tr><tr><td style="font-weight:bold;vertical-align:top;">QUERY_STRING</td><td style="vertical-align:top;">:</td><td><div></div></td></tr><tr><td style="font-weight:bold;vertical-align:top;">REMOTE_ADDR</td><td style="vertical-align:top;">:</td><td><div>127.0.0.1</div></td></tr><tr><td style="font-weight:bold;vertical-align:top;">REMOTE_PORT</td><td style="vertical-align:top;">:</td><td><div>46246</div></td></tr><tr><td style="font-weight:bold;vertical-align:top;">REQUEST_METHOD</td><td style="vertical-align:top;">:</td><td><div>POST</div></td></tr><tr><td style="font-weight:bold;vertical-align:top;">SCRIPT_NAME</td><td style="vertical-align:top;">:</td><td><div></div></td></tr><tr><td style="font-weight:bold;vertical-align:top;">SERVER_NAME</td><td style="vertical-align:top;">:</td><td><div>ryan-VirtualBox</div></td></tr><tr><td style="font-weight:bold;vertical-align:top;">SERVER_PORT</td><td style="vertical-align:top;">:</td><td><div>8000</div></td></tr><tr><td style="font-weight:bold;vertical-align:top;">SERVER_PROTOCOL</td><td style="vertical-align:top;">:</td><td><div>HTTP/1.1</div></td></tr><tr><td style="font-weight:bold;vertical-align:top;">SERVER_SOFTWARE</td><td style="vertical-align:top;">:</td><td><div>Rocket 1.2.6</div></td></tr><tr><td style="font-weight:bold;vertical-align:top;">app_folders</td><td style="vertical-align:top;">:</td><td><div>set([&#x27;/home/ryan/web2py/applications/welcome/&#x27;, &#x27;/home/ryan/web2py/applications/barber_shop_2/&#x27;, &#x27;/home/ryan/web2py/applications/admin/&#x27;])</div></td></tr><tr><td style="font-weight:bold;vertical-align:top;">applications_parent</td><td style="vertical-align:top;">:</td><td><div>/home/ryan/web2py</div></td></tr><tr><td style="font-weight:bold;vertical-align:top;">cmd_args</td><td style="vertical-align:top;">:</td><td><div><table></table></div></td></tr><tr><td style="font-weight:bold;vertical-align:top;">cmd_options</td><td style="vertical-align:top;">:</td><td><div>&lt;Values at 0x7f3cb15de9e0: {&#x27;verbose&#x27;: False, &#x27;ip&#x27;: &#x27;127.0.0.1&#x27;, &#x27;debuglevel&#x27;: 30, &#x27;with_scheduler&#x27;: False, &#x27;shutdown_timeout&#x27;: 5, &#x27;taskbar&#x27;: False, &#x27;with_coverage&#x27;: False, &#x27;pid_filename&#x27;: &#x27;httpserver.pid&#x27;, &#x27;maxthreads&#x27;: None, &#x27;softcron&#x27;: False, &#x27;server_name&#x27;: &#x27;ryan-VirtualBox&#x27;, &#x27;bpython&#x27;: False, &#x27;nogui&#x27;: False, &#x27;port&#x27;: 8000, &#x27;print_errors&#x27;: True, &#x27;extcron&#x27;: False, &#x27;runcron&#x27;: False, &#x27;run_system_tests&#x27;: False, &#x27;test&#x27;: None, &#x27;folder&#x27;: &#x27;/home/ryan/web2py&#x27;, &#x27;config&#x27;: &#x27;&#x27;, &#x27;minthreads&#x27;: None, &#x27;shell&#x27;: None, &#x27;run&#x27;: &#x27;&#x27;, &#x27;log_filename&#x27;: &#x27;httpserver.log&#x27;, &#x27;profiler_dir&#x27;: None, &#x27;args&#x27;: [&#x27;&#x27;], &#x27;socket_timeout&#x27;: 5, &#x27;ssl_ca_certificate&#x27;: None, &#x27;scheduler&#x27;: None, &#x27;interfaces&#x27;: None, &#x27;ssl_private_key&#x27;: &#x27;&#x27;, &#x27;gae&#x27;: None, &#x27;password&#x27;: &#x27;******&#x27;, &#x27;request_queue_size&#x27;: 5, &#x27;ssl_certificate&#x27;: &#x27;&#x27;, &#x27;cronjob&#x27;: False, &#x27;numthreads&#x27;: None, &#x27;quiet&#x27;: False, &#x27;import_models&#x27;: False, &#x27;timeout&#x27;: 10, &#x27;plain&#x27;: False, &#x27;nobanner&#x27;: False}&gt;</div></td></tr><tr><td style="font-weight:bold;vertical-align:top;">content_length</td><td style="vertical-align:top;">:</td><td><div>292</div></td></tr><tr><td style="font-weight:bold;vertical-align:top;">content_type</td><td style="vertical-align:top;">:</td><td><div>application/x-www-form-urlencoded; charset=UTF-8</div></td></tr><tr><td style="font-weight:bold;vertical-align:top;">db_sessions</td><td style="vertical-align:top;">:</td><td><div>set([])</div></td></tr><tr><td style="font-weight:bold;vertical-align:top;">debugging</td><td style="vertical-align:top;">:</td><td><div>False</div></td></tr><tr><td style="font-weight:bold;vertical-align:top;">gluon_parent</td><td style="vertical-align:top;">:</td><td><div>/home/ryan/web2py</div></td></tr><tr><td style="font-weight:bold;vertical-align:top;">http_accept</td><td style="vertical-align:top;">:</td><td><div>*/*</div></td></tr><tr><td style="font-weight:bold;vertical-align:top;">http_accept_encoding</td><td style="vertical-align:top;">:</td><td><div>gzip, deflate</div></td></tr><tr><td style="font-weight:bold;vertical-align:top;">http_accept_language</td><td style="vertical-align:top;">:</td><td><div>en-US,en;q=0.5</div></td></tr><tr><td style="font-weight:bold;vertical-align:top;">http_connection</td><td style="vertical-align:top;">:</td><td><div>keep-alive</div></td></tr><tr><td style="font-weight:bold;vertical-align:top;">http_content_length</td><td style="vertical-align:top;">:</td><td><div>292</div></td></tr><tr><td style="font-weight:bold;vertical-align:top;">http_content_type</td><td style="vertical-align:top;">:</td><td><div>application/x-www-form-urlencoded; charset=UTF-8</div></td></tr><tr><td style="font-weight:bold;vertical-align:top;">http_cookie</td><td style="vertical-align:top;">:</td><td><div>session_id_welcome=127.0.0.1-5b9ef61b-6889-4770-8edd-808aaf4ad2a1; session_id_admin=127.0.0.1-64515dc9-0486-4dfe-aed2-bd34f6642b08; session_id_barber_shop_2=127.0.0.1-bb0bc4f2-823e-4130-864d-2b98f56a7a14</div></td></tr><tr><td style="font-weight:bold;vertical-align:top;">http_host</td><td style="vertical-align:top;">:</td><td><div>127.0.0.1:8000</div></td></tr><tr><td style="font-weight:bold;vertical-align:top;">http_referer</td><td style="vertical-align:top;">:</td><td><div>http://127.0.0.1:8000/barber_shop_2/default/index</div></td></tr><tr><td style="font-weight:bold;vertical-align:top;">http_user_agent</td><td style="vertical-align:top;">:</td><td><div>Mozilla/5.0 (X11; Ubuntu; Linux x86_64; rv:63.0) Gecko/20100101 Firefox/63.0</div></td></tr><tr><td style="font-weight:bold;vertical-align:top;">http_x_requested_with</td><td style="vertical-align:top;">:</td><td><div>XMLHttpRequest</div></td></tr><tr><td style="font-weight:bold;vertical-align:top;">is_jython</td><td style="vertical-align:top;">:</td><td><div>False</div></td></tr><tr><td style="font-weight:bold;vertical-align:top;">is_py2</td><td style="vertical-align:top;">:</td><td><div>True</div></td></tr><tr><td style="font-weight:bold;vertical-align:top;">is_pypy</td><td style="vertical-align:top;">:</td><td><div>False</div></td></tr><tr><td style="font-weight:bold;vertical-align:top;">is_source</td><td style="vertical-align:top;">:</td><td><div>True</div></td></tr><tr><td style="font-weight:bold;vertical-align:top;">local_hosts</td><td style="vertical-align:top;">:</td><td><div><table><tr><td><div>::1</div></td></tr><tr><td><div>127.0.1.1</div></td></tr><tr><td><div>ryan-VirtualBox</div></td></tr><tr><td><div>::ffff:127.0.0.1</div></td></tr><tr><td><div>127.0.0.1</div></td></tr></table></div></td></tr><tr><td style="font-weight:bold;vertical-align:top;">path_info</td><td style="vertical-align:top;">:</td><td><div>/barber_shop_2/api/make_appointment_api</div></td></tr><tr><td style="font-weight:bold;vertical-align:top;">query_string</td><td style="vertical-align:top;">:</td><td><div></div></td></tr><tr><td style="font-weight:bold;vertical-align:top;">remote_addr</td><td style="vertical-align:top;">:</td><td><div>127.0.0.1</div></td></tr><tr><td style="font-weight:bold;vertical-align:top;">remote_port</td><td style="vertical-align:top;">:</td><td><div>46246</div></td></tr><tr><td style="font-weight:bold;vertical-align:top;">request_method</td><td style="vertical-align:top;">:</td><td><div>POST</div></td></tr><tr><td style="font-weight:bold;vertical-align:top;">request_uri</td><td style="vertical-align:top;">:</td><td><div>/barber_shop_2/api/make_appointment_api</div></td></tr><tr><td style="font-weight:bold;vertical-align:top;">script_name</td><td style="vertical-align:top;">:</td><td><div></div></td></tr><tr><td style="font-weight:bold;vertical-align:top;">server_name</td><td style="vertical-align:top;">:</td><td><div>ryan-VirtualBox</div></td></tr><tr><td style="font-weight:bold;vertical-align:top;">server_port</td><td style="vertical-align:top;">:</td><td><div>8000</div></td></tr><tr><td style="font-weight:bold;vertical-align:top;">server_protocol</td><td style="vertical-align:top;">:</td><td><div>HTTP/1.1</div></td></tr><tr><td style="font-weight:bold;vertical-align:top;">server_software</td><td style="vertical-align:top;">:</td><td><div>Rocket 1.2.6</div></td></tr><tr><td style="font-weight:bold;vertical-align:top;">web2py_path</td><td style="vertical-align:top;">:</td><td><div>/home/ryan/web2py</div></td></tr><tr><td style="font-weight:bold;vertical-align:top;">web2py_version</td><td style="vertical-align:top;">:</td><td><div>2.17.1-stable+timestamp.2018.08.06.01.02.56</div></td></tr><tr><td style="font-weight:bold;vertical-align:top;">wsgi.errors</td><td style="vertical-align:top;">:</td><td><div>&lt;open file &#x27;&lt;stderr&gt;&#x27;, mode &#x27;w&#x27; at 0x7f3cbb60e1e0&gt;</div></td></tr><tr><td style="font-weight:bold;vertical-align:top;">wsgi.file_wrapper</td><td style="vertical-align:top;">:</td><td><div>&lt;class wsgiref.util.FileWrapper at 0x7f3cb168cbb0&gt;</div></td></tr><tr><td style="font-weight:bold;vertical-align:top;">wsgi.input</td><td style="vertical-align:top;">:</td><td><div>&lt;socket._fileobject object at 0x7f3c8c3be750&gt;</div></td></tr><tr><td style="font-weight:bold;vertical-align:top;">wsgi.multiprocess</td><td style="vertical-align:top;">:</td><td><div>False</div></td></tr><tr><td style="font-weight:bold;vertical-align:top;">wsgi.multithread</td><td style="vertical-align:top;">:</td><td><div>True</div></td></tr><tr><td style="font-weight:bold;vertical-align:top;">wsgi.run_once</td><td style="vertical-align:top;">:</td><td><div>False</div></td></tr><tr><td style="font-weight:bold;vertical-align:top;">wsgi.url_scheme</td><td style="vertical-align:top;">:</td><td><div>http</div></td></tr><tr><td style="font-weight:bold;vertical-align:top;">wsgi.version</td><td style="vertical-align:top;">:</td><td><div><table><tr><td><div>1</div></td></tr><tr><td><div>0</div></td></tr></table></div></td></tr><tr><td style="font-weight:bold;vertical-align:top;">wsgi_errors</td><td style="vertical-align:top;">:</td><td><div>&lt;open file &#x27;&lt;stderr&gt;&#x27;, mode &#x27;w&#x27; at 0x7f3cbb60e1e0&gt;</div></td></tr><tr><td style="font-weight:bold;vertical-align:top;">wsgi_file_wrapper</td><td style="vertical-align:top;">:</td><td><div>&lt;class wsgiref.util.FileWrapper at 0x7f3cb168cbb0&gt;</div></td></tr><tr><td style="font-weight:bold;vertical-align:top;">wsgi_input</td><td style="vertical-align:top;">:</td><td><div>&lt;socket._fileobject object at 0x7f3c8c3be750&gt;</div></td></tr><tr><td style="font-weight:bold;vertical-align:top;">wsgi_multiprocess</td><td style="vertical-align:top;">:</td><td><div>False</div></td></tr><tr><td style="font-weight:bold;vertical-align:top;">wsgi_multithread</td><td style="vertical-align:top;">:</td><td><div>True</div></td></tr><tr><td style="font-weight:bold;vertical-align:top;">wsgi_run_once</td><td style="vertical-align:top;">:</td><td><div>False</div></td></tr><tr><td style="font-weight:bold;vertical-align:top;">wsgi_url_scheme</td><td style="vertical-align:top;">:</td><td><div>http</div></td></tr><tr><td style="font-weight:bold;vertical-align:top;">wsgi_version</td><td style="vertical-align:top;">:</td><td><div><table><tr><td><div>1</div></td></tr><tr><td><div>0</div></td></tr></table></div></td></tr></table></div></td></tr><tr><td style="font-weight:bold;vertical-align:top;">extension</td><td style="vertical-align:top;">:</td><td><div>html</div></td></tr><tr><td style="font-weight:bold;vertical-align:top;">folder</td><td style="vertical-align:top;">:</td><td><div>/home/ryan/web2py/applications/barber_shop_2/</div></td></tr><tr><td style="font-weight:bold;vertical-align:top;">function</td><td style="vertical-align:top;">:</td><td><div>make_appointment_api</div></td></tr><tr><td style="font-weight:bold;vertical-align:top;">global_settings</td><td style="vertical-align:top;">:</td><td><div><table><tr><td style="font-weight:bold;vertical-align:top;">app_folders</td><td style="vertical-align:top;">:</td><td><div>set([&#x27;/home/ryan/web2py/applications/welcome/&#x27;, &#x27;/home/ryan/web2py/applications/barber_shop_2/&#x27;, &#x27;/home/ryan/web2py/applications/admin/&#x27;])</div></td></tr><tr><td style="font-weight:bold;vertical-align:top;">applications_parent</td><td style="vertical-align:top;">:</td><td><div>/home/ryan/web2py</div></td></tr><tr><td style="font-weight:bold;vertical-align:top;">cmd_args</td><td style="vertical-align:top;">:</td><td><div><table></table></div></td></tr><tr><td style="font-weight:bold;vertical-align:top;">cmd_options</td><td style="vertical-align:top;">:</td><td><div>&lt;Values at 0x7f3cb15de9e0: {&#x27;verbose&#x27;: False, &#x27;ip&#x27;: &#x27;127.0.0.1&#x27;, &#x27;debuglevel&#x27;: 30, &#x27;with_scheduler&#x27;: False, &#x27;shutdown_timeout&#x27;: 5, &#x27;taskbar&#x27;: False, &#x27;with_coverage&#x27;: False, &#x27;pid_filename&#x27;: &#x27;httpserver.pid&#x27;, &#x27;maxthreads&#x27;: None, &#x27;softcron&#x27;: False, &#x27;server_name&#x27;: &#x27;ryan-VirtualBox&#x27;, &#x27;bpython&#x27;: False, &#x27;nogui&#x27;: False, &#x27;port&#x27;: 8000, &#x27;print_errors&#x27;: True, &#x27;extcron&#x27;: False, &#x27;runcron&#x27;: False, &#x27;run_system_tests&#x27;: False, &#x27;test&#x27;: None, &#x27;folder&#x27;: &#x27;/home/ryan/web2py&#x27;, &#x27;config&#x27;: &#x27;&#x27;, &#x27;minthreads&#x27;: None, &#x27;shell&#x27;: None, &#x27;run&#x27;: &#x27;&#x27;, &#x27;log_filename&#x27;: &#x27;httpserver.log&#x27;, &#x27;profiler_dir&#x27;: None, &#x27;args&#x27;: [&#x27;&#x27;], &#x27;socket_timeout&#x27;: 5, &#x27;ssl_ca_certificate&#x27;: None, &#x27;scheduler&#x27;: None, &#x27;interfaces&#x27;: None, &#x27;ssl_private_key&#x27;: &#x27;&#x27;, &#x27;gae&#x27;: None, &#x27;password&#x27;: &#x27;******&#x27;, &#x27;request_queue_size&#x27;: 5, &#x27;ssl_certificate&#x27;: &#x27;&#x27;, &#x27;cronjob&#x27;: False, &#x27;numthreads&#x27;: None, &#x27;quiet&#x27;: False, &#x27;import_models&#x27;: False, &#x27;timeout&#x27;: 10, &#x27;plain&#x27;: False, &#x27;nobanner&#x27;: False}&gt;</div></td></tr><tr><td style="font-weight:bold;vertical-align:top;">db_sessions</td><td style="vertical-align:top;">:</td><td><div>set([])</div></td></tr><tr><td style="font-weight:bold;vertical-align:top;">debugging</td><td style="vertical-align:top;">:</td><td><div>False</div></td></tr><tr><td style="font-weight:bold;vertical-align:top;">gluon_parent</td><td style="vertical-align:top;">:</td><td><div>/home/ryan/web2py</div></td></tr><tr><td style="font-weight:bold;vertical-align:top;">is_jython</td><td style="vertical-align:top;">:</td><td><div>False</div></td></tr><tr><td style="font-weight:bold;vertical-align:top;">is_py2</td><td style="vertical-align:top;">:</td><td><div>True</div></td></tr><tr><td style="font-weight:bold;vertical-align:top;">is_pypy</td><td style="vertical-align:top;">:</td><td><div>False</div></td></tr><tr><td style="font-weight:bold;vertical-align:top;">is_source</td><td style="vertical-align:top;">:</td><td><div>True</div></td></tr><tr><td style="font-weight:bold;vertical-align:top;">local_hosts</td><td style="vertical-align:top;">:</td><td><div><table><tr><td><div>::1</div></td></tr><tr><td><div>127.0.1.1</div></td></tr><tr><td><div>ryan-VirtualBox</div></td></tr><tr><td><div>::ffff:127.0.0.1</div></td></tr><tr><td><div>127.0.0.1</div></td></tr></table></div></td></tr><tr><td style="font-weight:bold;vertical-align:top;">web2py_version</td><td style="vertical-align:top;">:</td><td><div>2.17.1-stable+timestamp.2018.08.06.01.02.56</div></td></tr></table></div></td></tr><tr><td style="font-weight:bold;vertical-align:top;">is_https</td><td style="vertical-align:top;">:</td><td><div>False</div></td></tr><tr><td style="font-weight:bold;vertical-align:top;">is_local</td><td style="vertical-align:top;">:</td><td><div>True</div></td></tr><tr><td style="font-weight:bold;vertical-align:top;">is_restful</td><td style="vertical-align:top;">:</td><td><div>False</div></td></tr><tr><td style="font-weight:bold;vertical-align:top;">is_scheduler</td><td style="vertical-align:top;">:</td><td><div>False</div></td></tr><tr><td style="font-weight:bold;vertical-align:top;">is_shell</td><td style="vertical-align:top;">:</td><td><div>False</div></td></tr><tr><td style="font-weight:bold;vertical-align:top;">method</td><td style="vertical-align:top;">:</td><td><div>POST</div></td></tr><tr><td style="font-weight:bold;vertical-align:top;">now</td><td style="vertical-align:top;">:</td><td><div>datetime.datetime(2018, 12, 5, 15, 46, 38, 923272)</div></td></tr><tr><td style="font-weight:bold;vertical-align:top;">raw_args</td><td style="vertical-align:top;">:</td><td><div></div></td></tr><tr><td style="font-weight:bold;vertical-align:top;">raw_extension</td><td style="vertical-align:top;">:</td><td><div>None</div></td></tr><tr><td style="font-weight:bold;vertical-align:top;">url</td><td style="vertical-align:top;">:</td><td><div>/barber_shop_2/api/make_appointment_api</div></td></tr><tr><td style="font-weight:bold;vertical-align:top;">utcnow</td><td style="vertical-align:top;">:</td><td><div>datetime.datetime(2018, 12, 5, 23, 46, 38, 923288)</div></td></tr><tr><td style="font-weight:bold;vertical-align:top;">wsgi</td><td style="vertical-align:top;">:</td><td><div>&lt;gluon.main.LazyWSGI object at 0x7f3c8c1b77d0&gt;</div></td></tr></table></div>'
tRp60
sS'frames'
p61
(lp62
(dp63
S'file'
p64
S'/home/ryan/web2py/gluon/restricted.py'
p65
sS'dump'
p66
(dp67
S'environment'
p68
S"{'A': <class 'gluon.html.A'>, 'ANY_OF': <class 'gluon.validators.ANY_OF'>, 'ASSIGNJS': <function ASSIGNJS>, 'AppConfig': <function AppConfig>, 'Auth': <class 'gluon.tools.Auth'>, 'B': <class 'gluon.html.B'>, 'BEAUTIFY': <class 'gluon.html.BEAUTIFY'>, 'BODY': <class 'gluon.html.BODY'>, 'BR': <class 'gluon.html.BR'>, 'BUTTON': <class 'gluon.html.BUTTON'>, ...}"
p69
sS'ccode'
p70
S'<code object <module> at 0x7f3c8c3bef30, file "/...ations/barber_shop_2/controllers/api.py", line 1>'
p71
ssS'lnum'
p72
I219
sS'lines'
p73
(dp74
I214
S'    if environment is None:'
p75
sI215
S'        environment = {}'
p76
sI216
S"    environment['__file__'] = layer"
p77
sI217
S"    environment['__name__'] = '__restricted__'"
p78
sI218
S'    try:'
p79
sI219
S'        exec(ccode, environment)'
p80
sI220
S'    except HTTP:'
p81
sI221
S'        raise'
p82
sI222
S'    except RestrictedError:'
p83
sI223
S'        # do not encapsulate (obfuscate) the original RestrictedError'
p84
ssS'call'
p85
S'(ccode=<code object <module> at 0x7f3c8c3bef30, file "/...ations/barber_shop_2/controllers/api.py", line 1>, environment={\'A\': <class \'gluon.html.A\'>, \'ANY_OF\': <class \'gluon.validators.ANY_OF\'>, \'ASSIGNJS\': <function ASSIGNJS>, \'AppConfig\': <function AppConfig>, \'Auth\': <class \'gluon.tools.Auth\'>, \'B\': <class \'gluon.html.B\'>, \'BEAUTIFY\': <class \'gluon.html.BEAUTIFY\'>, \'BODY\': <class \'gluon.html.BODY\'>, \'BR\': <class \'gluon.html.BR\'>, \'BUTTON\': <class \'gluon.html.BUTTON\'>, ...}, layer=\'/home/ryan/web2py/applications/barber_shop_2/controllers/api.py\', scode=<code object <module> at 0x7f3c8c3bef30, file "/...ations/barber_shop_2/controllers/api.py", line 1>)'
p86
sS'func'
p87
S'restricted'
p88
sa(dp89
g64
S'/home/ryan/web2py/applications/barber_shop_2/controllers/api.py'
p90
sg66
(dp91
sg72
I74
sg73
(dp92
I64
S''
sI65
S''
sI66
S'def time_is_available(appts, time):'
p93
sI67
S'    for appt in appts:'
p94
sI68
S'        # print(type(appt.timeslot_id))'
p95
sI69
S'        # print(type(time.id))'
p96
sI70
S'        if time.id == appt.timeslot_id:'
p97
sI71
S'            return False'
p98
sI72
S'    return True'
p99
sI63
S'    return response.json(dict(time=results))'
p100
ssg85
S'()'
p101
sg87
S'<module>'
p102
sa(dp103
g64
S'/home/ryan/web2py/gluon/globals.py'
p104
sg66
(dp105
S'self'
p106
S'undefined'
p107
sS'f'
S'<function make_appointment_api>'
p108
ssg72
I421
sg73
(dp109
I416
S"        self.flash = ''            # used by the default view layout"
p110
sI417
S'        self.meta = Storage()      # used by web2py_ajax.html'
p111
sI418
S'        self.menu = []             # used by the default view layout'
p112
sI419
S'        self.files = []            # used by web2py_ajax.html'
p113
sI420
S'        self._vars = None'
p114
sI421
S'        self._caller = lambda f: f()'
p115
sI422
S'        self._view_environment = None'
p116
sI423
S'        self._custom_commit = None'
p117
sI424
S'        self._custom_rollback = None'
p118
sI425
S"        self.generic_patterns = ['*']"
p119
ssg85
S'(f=<function make_appointment_api>)'
p120
sg87
S'<lambda>'
p121
sa(dp122
g64
S'/home/ryan/web2py/applications/barber_shop_2/controllers/api.py'
p123
sg66
(dp124
S'timeslot_id'
p125
g107
sS'user_id'
p126
g107
sS'appointment_date'
p127
g107
sS'global request'
p128
S"<Storage {'function': 'make_appointment_api', 'c... True, 'is_https': False, 'client': '127.0.0.1'}>"
p129
sS'request.vars.user_id'
p130
S'None'
p131
sS'request.vars.appointment_date'
p132
S"'2018-12-05'"
p133
sS'db.appointments.insert'
p134
S'<bound method Table.insert of <Table appointment...ber_id, appointment_date, timeslot_id, user_id)>>'
p135
sS'request.vars.timeslot_id'
p136
S"'${time.id}'"
p137
sS'db.appointments'
p138
S'<Table appointments (id, barber_id, appointment_date, timeslot_id, user_id)>'
p139
sS'global db'
p140
S'<DAL uri="sqlite://storage.sqlite">'
p141
sS'request.vars'
p142
S"<Storage {'timeslot_id': '${time.id}', 'user_id[...key]': '', 'barber_id': '2', 'user_id[id]': '1'}>"
p143
sS'barber_id'
p144
g107
sS'request.vars.barber_id'
p145
S"'2'"
p146
ssg72
I7
sg73
(dp147
I2
S'    barbers = db(db.auth_user.Barber == True).select()'
p148
sI3
S'    return response.json(dict(barbers=barbers))'
p149
sI4
S''
sI5
S'def make_appointment_api():'
p150
sI6
S'    print "hello"'
p151
sI7
S'    db.appointments.insert(barber_id=request.vars.barber_id, appointment_date=request.vars.appointment_date, timeslot_id=request.vars.timeslot_id, user_id=request.vars.user_id)'
p152
sI8
S'    print request.vars.appointment_date'
p153
sI9
S''
sI10
S'    return "from make_appointment()"'
p154
sI11
S''
ssg85
S'()'
p155
sg87
S'make_appointment_api'
p156
sa(dp157
g64
S'/home/ryan/web2py/gluon/packages/dal/pydal/objects.py'
p158
sg66
(dp159
S'self'
p160
S'<Table appointments (id, barber_id, appointment_date, timeslot_id, user_id)>'
p161
sS'ret'
p162
g107
sS'row.op_values'
p163
S"<bound method OpRow.op_values of <OpRow {'timesl...er_id': None, 'appointment_date': '2018-12-05'}>>"
p164
sS'self._db._adapter'
p165
S'<pydal.adapters.sqlite.SQLite object>'
p166
sS'self._db._adapter.insert'
p167
S'<bound method SQLite.insert of <pydal.adapters.sqlite.SQLite object>>'
p168
sS'self._db'
p169
S'<DAL uri="sqlite://storage.sqlite">'
p170
sS'row'
p171
S"<OpRow {'timeslot_id': '${time.id}', 'barber_id'...ser_id': None, 'appointment_date': '2018-12-05'}>"
p172
ssg72
I766
sg73
(dp173
I768
S'            for f in self._after_insert:'
p174
sI769
S'                f(row, ret)'
p175
sI770
S'        return ret'
p176
sI761
S''
sI762
S'    def insert(self, **fields):'
p177
sI763
S'        row = self._fields_and_values_for_insert(fields)'
p178
sI764
S'        if any(f(row) for f in self._before_insert):'
p179
sI765
S'            return 0'
p180
sI766
S'        ret = self._db._adapter.insert(self, row.op_values())'
p181
sI767
S'        if ret and self._after_insert:'
p182
ssg85
S"(self=<Table appointments (id, barber_id, appointment_date, timeslot_id, user_id)>, **fields={'appointment_date': '2018-12-05', 'barber_id': '2', 'timeslot_id': '${time.id}', 'user_id': None})"
p183
sg87
S'insert'
p184
sa(dp185
g64
S'/home/ryan/web2py/gluon/packages/dal/pydal/adapters/base.py'
p186
sg66
(dp187
S'self._insert'
p188
S'<bound method SQLite._insert of <pydal.adapters.sqlite.SQLite object>>'
p189
sS'query'
p190
g107
sS'self'
p191
S'<pydal.adapters.sqlite.SQLite object>'
p192
sS'fields'
p193
S"[(<pydal.objects.Field object>, '${time.id}'), (<pydal.objects.Field object>, '2'), (<pydal.objects.Field object>, None), (<pydal.objects.Field object>, '2018-12-05')]"
p194
sS'table'
p195
S'<Table appointments (id, barber_id, appointment_date, timeslot_id, user_id)>'
p196
ssg72
I480
sg73
(dp197
I480
S'        query = self._insert(table, fields)'
p198
sI481
S'        try:'
p199
sI482
S'            self.execute(query)'
p200
sI483
S'        except:'
p201
sI484
S'            e = sys.exc_info()[1]'
p202
sI475
S"                ','.join(el[0]._rname for el in fields),"
p203
sI476
S"                ','.join(self.expand(v, f.type) for f, v in fields))"
p204
sI477
S'        return self.dialect.insert_empty(table._rname)'
p205
sI478
S''
sI479
S'    def insert(self, table, fields):'
p206
ssg85
S"(self=<pydal.adapters.sqlite.SQLite object>, table=<Table appointments (id, barber_id, appointment_date, timeslot_id, user_id)>, fields=[(<pydal.objects.Field object>, '${time.id}'), (<pydal.objects.Field object>, '2'), (<pydal.objects.Field object>, None), (<pydal.objects.Field object>, '2018-12-05')])"
p207
sg87
g184
sa(dp208
g64
S'/home/ryan/web2py/gluon/packages/dal/pydal/adapters/base.py'
p209
sg66
(dp210
S'fields'
p211
S"[(<pydal.objects.Field object>, '${time.id}'), (<pydal.objects.Field object>, '2'), (<pydal.objects.Field object>, None), (<pydal.objects.Field object>, '2018-12-05')]"
p212
sS'self'
p213
S'<pydal.adapters.sqlite.SQLite object>'
p214
sS'v'
g107
sS'f'
g107
sS'self.expand'
p215
S'<bound method SQLite._expand of <pydal.adapters.sqlite.SQLite object>>'
p216
ssg72
I476
sg73
(dp217
I480
S'        query = self._insert(table, fields)'
p218
sI471
S'    def _insert(self, table, fields):'
p219
sI472
S'        if fields:'
p220
sI473
S'            return self.dialect.insert('
p221
sI474
S'                table._rname,'
p222
sI475
S"                ','.join(el[0]._rname for el in fields),"
p223
sI476
S"                ','.join(self.expand(v, f.type) for f, v in fields))"
p224
sI477
S'        return self.dialect.insert_empty(table._rname)'
p225
sI478
S''
sI479
S'    def insert(self, table, fields):'
p226
ssg85
S"(self=<pydal.adapters.sqlite.SQLite object>, table=<Table appointments (id, barber_id, appointment_date, timeslot_id, user_id)>, fields=[(<pydal.objects.Field object>, '${time.id}'), (<pydal.objects.Field object>, '2'), (<pydal.objects.Field object>, None), (<pydal.objects.Field object>, '2018-12-05')])"
p227
sg87
S'_insert'
p228
sa(dp229
g64
S'/home/ryan/web2py/gluon/packages/dal/pydal/adapters/base.py'
p230
sg66
(dp231
S'f'
S'<pydal.objects.Field object>'
p232
sS'fields'
p233
g107
sS'self'
p234
S'<pydal.adapters.sqlite.SQLite object>'
p235
sS'f.type'
p236
S"'reference timeslots'"
p237
sS'v'
S"'${time.id}'"
p238
sS'self.expand'
p239
S'<bound method SQLite._expand of <pydal.adapters.sqlite.SQLite object>>'
p240
ssg72
I476
sg73
(dp241
I480
S'        query = self._insert(table, fields)'
p242
sI471
S'    def _insert(self, table, fields):'
p243
sI472
S'        if fields:'
p244
sI473
S'            return self.dialect.insert('
p245
sI474
S'                table._rname,'
p246
sI475
S"                ','.join(el[0]._rname for el in fields),"
p247
sI476
S"                ','.join(self.expand(v, f.type) for f, v in fields))"
p248
sI477
S'        return self.dialect.insert_empty(table._rname)'
p249
sI478
S''
sI479
S'    def insert(self, table, fields):'
p250
ssg85
S"((f=<pydal.objects.Field object>, v='${time.id}'))"
p251
sg87
S'<genexpr>'
p252
sa(dp253
g64
S'/home/ryan/web2py/gluon/packages/dal/pydal/adapters/base.py'
p254
sg66
(dp255
S'self.represent'
p256
S'<bound method SQLite.represent of <pydal.adapters.sqlite.SQLite object>>'
p257
sS'rv'
p258
g107
sS'expression'
p259
S"'${time.id}'"
p260
sS'self'
p261
S'<pydal.adapters.sqlite.SQLite object>'
p262
sS'field_type'
p263
S"'reference timeslots'"
p264
ssg72
I445
sg73
(dp265
I448
S'                          for item in expression)'
p266
sI449
S'        elif isinstance(expression, bool):'
p267
sI440
S'                    op = op[:-1]'
p268
sI441
S"                rv = '(%s)' % op"
p269
sI442
S'            else:'
p270
sI443
S'                rv = op()'
p271
sI444
S'        elif field_type:'
p272
sI445
S'            rv = self.represent(expression, field_type)'
p273
sI446
S'        elif isinstance(expression, (list, tuple)):'
p274
sI447
S"            rv = ','.join(self.represent(item, field_type)"
p275
ssg85
S"(self=<pydal.adapters.sqlite.SQLite object>, expression='${time.id}', field_type='reference timeslots', colnames=False, query_env={})"
p276
sg87
S'_expand'
p277
sa(dp278
g64
S'/home/ryan/web2py/gluon/packages/dal/pydal/adapters/base.py'
p279
sg66
(dp280
S'field_type'
p281
S"'reference timeslots'"
p282
sS'obj'
p283
S"'${time.id}'"
p284
sS'self'
p285
S'<pydal.adapters.sqlite.SQLite object>'
p286
sS'global SQLAdapter'
p287
S"<class 'pydal.adapters.base.SQLAdapter'>"
p288
sS').represent'
p289
S'<bound method SQLite.represent of <pydal.adapters.sqlite.SQLite object>>'
p290
sS'builtinsuper'
p291
S"<type 'super'>"
p292
ssg72
I382
sg73
(dp293
I384
S'    def adapt(self, obj):'
p294
sI385
S'        return "\'%s\'" % obj.replace("\'", "\'\'")'
p295
sI386
S''
sI377
S"        self.execute('SELECT 1;')"
p296
sI378
S''
sI379
S'    def represent(self, obj, field_type):'
p297
sI380
S'        if isinstance(obj, (Expression, Field)):'
p298
sI381
S'            return str(obj)'
p299
sI382
S'        return super(SQLAdapter, self).represent(obj, field_type)'
p300
sI383
S''
ssg85
S"(self=<pydal.adapters.sqlite.SQLite object>, obj='${time.id}', field_type='reference timeslots')"
p301
sg87
S'represent'
p302
sa(dp303
g64
S'/home/ryan/web2py/gluon/packages/dal/pydal/adapters/base.py'
p304
sg66
(dp305
S'self.representer'
p306
S'<pydal.representers.sqlite.SQLiteRepresenter object>'
p307
sS'self'
p308
S'<pydal.adapters.sqlite.SQLite object>'
p309
sS'field_type'
p310
S"'reference timeslots'"
p311
sS'obj'
p312
S"'${time.id}'"
p313
sS'self.representer.represent'
p314
S'<bound method SQLiteRepresenter.represent of <pydal.representers.sqlite.SQLiteRepresenter object>>'
p315
ssg72
I336
sg73
(dp316
I331
S'        return value'
p317
sI332
S''
sI333
S'    def represent(self, obj, field_type):'
p318
sI334
S'        if isinstance(obj, CALLABLETYPES):'
p319
sI335
S'            obj = obj()'
p320
sI336
S'        return self.representer.represent(obj, field_type)'
p321
sI337
S''
sI338
S'    def _drop_table_cleanup(self, table):'
p322
sI339
S'        del self.db[table._tablename]'
p323
sI340
S'        del self.db.tables[self.db.tables.index(table._tablename)]'
p324
ssg85
S"(self=<pydal.adapters.sqlite.SQLite object>, obj='${time.id}', field_type='reference timeslots')"
p325
sg87
g302
sa(dp326
g64
S'/home/ryan/web2py/gluon/packages/dal/pydal/representers/__init__.py'
p327
sg66
(dp328
S'field_type'
p329
S"'reference timeslots'"
p330
sS'rv'
p331
S"'${time.id}'"
p332
sS'self'
p333
S'<pydal.representers.sqlite.SQLiteRepresenter object>'
p334
sS'self.get_representer_for_type'
p335
S'<bound method SQLiteRepresenter.get_representer_...al.representers.sqlite.SQLiteRepresenter object>>'
p336
ssg72
I251
sg73
(dp337
I246
S'        if pre_end:'
p338
sI247
S'            return value'
p339
sI248
S'        repr_type, rv = self.get_representer_for_instance(value)('
p340
sI249
S'            value, field_type)'
p341
sI250
S'        if repr_type:'
p342
sI251
S'            rv = self.get_representer_for_type(field_type)(rv, field_type)'
p343
sI252
S'        return rv'
p344
sI253
S''
sI254
S''
sI255
S'from .base import BaseRepresenter, SQLRepresenter, NoSQLRepresenter'
p345
ssg85
S"(self=<pydal.representers.sqlite.SQLiteRepresenter object>, value='${time.id}', field_type='reference timeslots')"
p346
sg87
g302
sa(dp347
g64
S'/home/ryan/web2py/gluon/packages/dal/pydal/representers/__init__.py'
p348
sg66
(dp349
S'value'
p350
S"'${time.id}'"
p351
sS'self'
p352
S'<pydal.representers.TReprMethodWrapper object>'
p353
sS'self.call'
p354
S'<bound method TReprMethodWrapper._call_with_extr...f <pydal.representers.TReprMethodWrapper object>>'
p355
sS'self.adapt'
p356
S'<bound method TReprMethodWrapper._no_adapt of <pydal.representers.TReprMethodWrapper object>>'
p357
sS'field_type'
p358
S"'reference timeslots'"
p359
ssg72
I139
sg73
(dp360
I134
S''
sI135
S'    def _call(self, value, field_type):'
p361
sI136
S'        return self.inner_call(value)'
p362
sI137
S''
sI138
S'    def __call__(self, value, field_type):'
p363
sI139
S'        return self.adapt(self.call(value, field_type))'
p364
sI140
S''
sI141
S''
sI142
S'class IReprMethodWrapper(object):'
p365
sI143
S'    def __init__(self, representer, obj):'
p366
ssg85
S"(self=<pydal.representers.TReprMethodWrapper object>, value='${time.id}', field_type='reference timeslots')"
p367
sg87
S'__call__'
p368
sa(dp369
g64
S'/home/ryan/web2py/gluon/packages/dal/pydal/representers/__init__.py'
p370
sg66
(dp371
S'self.inner_call'
p372
S'<bound method TReprMethodWrapper._inner_call of <pydal.representers.TReprMethodWrapper object>>'
p373
sS'self'
p374
S'<pydal.representers.TReprMethodWrapper object>'
p375
sS'extras'
p376
S"{'referenced': 'timeslots'}"
p377
sS'value'
p378
S"'${time.id}'"
p379
ssg72
I133
sg73
(dp380
I128
S'            value = value.encode(self.representer.adapter.db_codec)'
p381
sI129
S'        return self.obj.f(self.representer, value, **kwargs)'
p382
sI130
S''
sI131
S'    def _call_with_extras(self, value, field_type):'
p383
sI132
S'        extras = self.extra(self.representer, field_type)'
p384
sI133
S'        return self.inner_call(value, **extras)'
p385
sI134
S''
sI135
S'    def _call(self, value, field_type):'
p386
sI136
S'        return self.inner_call(value)'
p387
sI137
S''
ssg85
S"(self=<pydal.representers.TReprMethodWrapper object>, value='${time.id}', field_type='reference timeslots')"
p388
sg87
S'_call_with_extras'
p389
sa(dp390
g64
S'/home/ryan/web2py/gluon/packages/dal/pydal/representers/__init__.py'
p391
sg66
(dp392
S'self.obj.f'
p393
S'<function _reference>'
p394
sS'self.obj'
p395
S'<pydal.representers.for_type object>'
p396
sS'self'
p397
S'<pydal.representers.TReprMethodWrapper object>'
p398
sS'value'
p399
S"'${time.id}'"
p400
sS'self.representer'
p401
S'<pydal.representers.sqlite.SQLiteRepresenter object>'
p402
sS'kwargs'
p403
S"{'referenced': 'timeslots'}"
p404
ssg72
I124
sg73
(dp405
I128
S'            value = value.encode(self.representer.adapter.db_codec)'
p406
sI119
S''
sI120
S'    def _no_adapt(self, value):'
p407
sI121
S'        return value'
p408
sI122
S''
sI123
S'    def _inner_call(self, value, **kwargs):'
p409
sI124
S'        return self.obj.f(self.representer, value, **kwargs)'
p410
sI125
S''
sI126
S'    def _inner_call_with_encode(self, value, **kwargs):'
p411
sI127
S'        if isinstance(value, unicode):'
p412
ssg85
S"(self=<pydal.representers.TReprMethodWrapper object>, value='${time.id}', **kwargs={'referenced': 'timeslots'})"
p413
sg87
S'_inner_call'
p414
sa(dp415
g64
S'/home/ryan/web2py/gluon/packages/dal/pydal/representers/base.py'
p416
sg66
(dp417
S'builtinstr'
p418
S"<type 'str'>"
p419
sS'global long'
p420
S"<type 'long'>"
p421
sS'value'
p422
S"'${time.id}'"
p423
ssg72
I141
sg73
(dp424
I136
S"        return {'referenced': field_type[9:].strip()}"
p425
sI137
S''
sI138
S"    @for_type('reference', adapt=False)"
p426
sI139
S'    def _reference(self, value, referenced):'
p427
sI140
S'        if referenced in self.adapter.db.tables:'
p428
sI141
S'            return str(long(value))'
p429
sI142
S"        p = referenced.partition('.')"
p430
sI143
S"        if p[2] != '':"
p431
sI144
S'            try:'
p432
sI145
S'                ftype = self.adapter.db[p[0]][p[2]].type'
p433
ssg85
S"(self=<pydal.representers.sqlite.SQLiteRepresenter object>, value='${time.id}', referenced='timeslots')"
p434
sg87
S'_reference'
p435
sasS'pyver'
p436
S'Python 2.7.15: /home/ryan/anaconda3/envs/python27/bin/python (prefix: /home/ryan/anaconda3/envs/python27)'
p437
sS'session'
p438
g59
(S's\x84\n\x00\x00<div><table><tr><td style="font-weight:bold;vertical-align:top;">auth</td><td style="vertical-align:top;">:</td><td><div><table><tr><td style="font-weight:bold;vertical-align:top;">expiration</td><td style="vertical-align:top;">:</td><td><div>3600</div></td></tr><tr><td style="font-weight:bold;vertical-align:top;">hmac_key</td><td style="vertical-align:top;">:</td><td><div>cee120e5-56dc-4b3e-a176-bdc746c7d50f</div></td></tr><tr><td style="font-weight:bold;vertical-align:top;">last_visit</td><td style="vertical-align:top;">:</td><td><div>datetime.datetime(2018, 12, 5, 15, 46, 33, 953981)</div></td></tr><tr><td style="font-weight:bold;vertical-align:top;">remember_me</td><td style="vertical-align:top;">:</td><td><div>False</div></td></tr><tr><td style="font-weight:bold;vertical-align:top;">user</td><td style="vertical-align:top;">:</td><td><div><table><tr><td style="font-weight:bold;vertical-align:top;">Barber</td><td style="vertical-align:top;">:</td><td><div>None</div></td></tr><tr><td style="font-weight:bold;vertical-align:top;">email</td><td style="vertical-align:top;">:</td><td><div>rng13@ucsc.edu</div></td></tr><tr><td style="font-weight:bold;vertical-align:top;">first_name</td><td style="vertical-align:top;">:</td><td><div>ryan</div></td></tr><tr><td style="font-weight:bold;vertical-align:top;">id</td><td style="vertical-align:top;">:</td><td><div>1L</div></td></tr><tr><td style="font-weight:bold;vertical-align:top;">last_name</td><td style="vertical-align:top;">:</td><td><div>ng</div></td></tr><tr><td style="font-weight:bold;vertical-align:top;">registration_id</td><td style="vertical-align:top;">:</td><td><div></div></td></tr><tr><td style="font-weight:bold;vertical-align:top;">registration_key</td><td style="vertical-align:top;">:</td><td><div></div></td></tr><tr><td style="font-weight:bold;vertical-align:top;">reset_password_key</td><td style="vertical-align:top;">:</td><td><div></div></td></tr></table></div></td></tr><tr><td style="font-weight:bold;vertical-align:top;">user_groups</td><td style="vertical-align:top;">:</td><td><div><table><tr><td style="font-weight:bold;vertical-align:top;">1</td><td style="vertical-align:top;">:</td><td><div>user_1</div></td></tr></table></div></td></tr></table></div></td></tr><tr><td style="font-weight:bold;vertical-align:top;">flash</td><td style="vertical-align:top;">:</td><td><div>None</div></td></tr><tr><td style="font-weight:bold;vertical-align:top;">last_orderby</td><td style="vertical-align:top;">:</td><td><div>None</div></td></tr><tr><td style="font-weight:bold;vertical-align:top;">last_query</td><td style="vertical-align:top;">:</td><td><div>db.auth_user.id&gt;0</div></td></tr></table></div>'
tRp439
sS'etype'
p440
S"<type 'exceptions.ValueError'>"
p441
sS'date'
p442
S'Wed Dec  5 15:46:39 2018'
p443
sS'response'
p444
g59
(S's\xfe=\x00\x00<div><table><tr><td style="font-weight:bold;vertical-align:top;">body</td><td style="vertical-align:top;">:</td><td><div>&lt;cStringIO.StringO object at 0x7f3c8c560110&gt;</div></td></tr><tr><td style="font-weight:bold;vertical-align:top;">cookies</td><td style="vertical-align:top;">:</td><td><div><table><tr><td style="font-weight:bold;vertical-align:top;">session_id_barber_shop_2</td><td style="vertical-align:top;">:</td><td><div>127.0.0.1-bb0bc4f2-823e-4130-864d-2b98f56a7a14<table><tr><td style="font-weight:bold;vertical-align:top;">comment</td><td style="vertical-align:top;">:</td><td><div></div></td></tr><tr><td style="font-weight:bold;vertical-align:top;">domain</td><td style="vertical-align:top;">:</td><td><div></div></td></tr><tr><td style="font-weight:bold;vertical-align:top;">expires</td><td style="vertical-align:top;">:</td><td><div></div></td></tr><tr><td style="font-weight:bold;vertical-align:top;">httponly</td><td style="vertical-align:top;">:</td><td><div></div></td></tr><tr><td style="font-weight:bold;vertical-align:top;">max-age</td><td style="vertical-align:top;">:</td><td><div></div></td></tr><tr><td style="font-weight:bold;vertical-align:top;">path</td><td style="vertical-align:top;">:</td><td><div>/</div></td></tr><tr><td style="font-weight:bold;vertical-align:top;">secure</td><td style="vertical-align:top;">:</td><td><div></div></td></tr><tr><td style="font-weight:bold;vertical-align:top;">version</td><td style="vertical-align:top;">:</td><td><div></div></td></tr></table></div></td></tr></table></div></td></tr><tr><td style="font-weight:bold;vertical-align:top;">delimiters</td><td style="vertical-align:top;">:</td><td><div><table><tr><td><div>{{</div></td></tr><tr><td><div>}}</div></td></tr></table></div></td></tr><tr><td style="font-weight:bold;vertical-align:top;">files</td><td style="vertical-align:top;">:</td><td><div><table></table></div></td></tr><tr><td style="font-weight:bold;vertical-align:top;">flash</td><td style="vertical-align:top;">:</td><td><div></div></td></tr><tr><td style="font-weight:bold;vertical-align:top;">form_label_separator</td><td style="vertical-align:top;">:</td><td><div></div></td></tr><tr><td style="font-weight:bold;vertical-align:top;">formstyle</td><td style="vertical-align:top;">:</td><td><div>bootstrap4_inline</div></td></tr><tr><td style="font-weight:bold;vertical-align:top;">generic_patterns</td><td style="vertical-align:top;">:</td><td><div><table><tr><td><div>*</div></td></tr></table></div></td></tr><tr><td style="font-weight:bold;vertical-align:top;">google_analytics_id</td><td style="vertical-align:top;">:</td><td><div>None</div></td></tr><tr><td style="font-weight:bold;vertical-align:top;">headers</td><td style="vertical-align:top;">:</td><td><div><table><tr><td style="font-weight:bold;vertical-align:top;">X-Powered-By</td><td style="vertical-align:top;">:</td><td><div>web2py</div></td></tr></table></div></td></tr><tr><td style="font-weight:bold;vertical-align:top;">menu</td><td style="vertical-align:top;">:</td><td><div><table><tr><td><div><table><tr><td><div>Home</div></td></tr><tr><td><div>False</div></td></tr><tr><td><div>/barber_shop_2/default/index</div></td></tr><tr><td><div><table></table></div></td></tr></table></div></td></tr><tr><td><div><table><tr><td><div>My Sites</div></td></tr><tr><td><div>False</div></td></tr><tr><td><div>/admin/default/site</div></td></tr></table></div></td></tr><tr><td><div><table><tr><td><div>This App</div></td></tr><tr><td><div>False</div></td></tr><tr><td><div>#</div></td></tr><tr><td><div><table><tr><td><div><table><tr><td><div>Design</div></td></tr><tr><td><div>False</div></td></tr><tr><td><div>/admin/default/design/barber_shop_2</div></td></tr></table></div></td></tr><tr><td><div><table><tr><td><div>Controller</div></td></tr><tr><td><div>False</div></td></tr><tr><td><div>/admin/default/edit/barber_shop_2/controllers/api.py</div></td></tr></table></div></td></tr><tr><td><div><table><tr><td><div>View</div></td></tr><tr><td><div>False</div></td></tr><tr><td><div>/admin/default/edit/barber_shop_2/views/api/make_appointment_api.html</div></td></tr></table></div></td></tr><tr><td><div><table><tr><td><div>DB Model</div></td></tr><tr><td><div>False</div></td></tr><tr><td><div>/admin/default/edit/barber_shop_2/models/db.py</div></td></tr></table></div></td></tr><tr><td><div><table><tr><td><div>Menu Model</div></td></tr><tr><td><div>False</div></td></tr><tr><td><div>/admin/default/edit/barber_shop_2/models/menu.py</div></td></tr></table></div></td></tr><tr><td><div><table><tr><td><div>Config.ini</div></td></tr><tr><td><div>False</div></td></tr><tr><td><div>/admin/default/edit/barber_shop_2/private/appconfig.ini</div></td></tr></table></div></td></tr><tr><td><div><table><tr><td><div>Layout</div></td></tr><tr><td><div>False</div></td></tr><tr><td><div>/admin/default/edit/barber_shop_2/views/layout.html</div></td></tr></table></div></td></tr><tr><td><div><table><tr><td><div>Stylesheet</div></td></tr><tr><td><div>False</div></td></tr><tr><td><div>/admin/default/edit/barber_shop_2/static/css/web2py-bootstrap3.css</div></td></tr></table></div></td></tr><tr><td><div><table><tr><td><div>Database</div></td></tr><tr><td><div>False</div></td></tr><tr><td><div>/barber_shop_2/appadmin/index</div></td></tr></table></div></td></tr><tr><td><div><table><tr><td><div>Errors</div></td></tr><tr><td><div>False</div></td></tr><tr><td><div>/admin/default/errors/barber_shop_2</div></td></tr></table></div></td></tr><tr><td><div><table><tr><td><div>About</div></td></tr><tr><td><div>False</div></td></tr><tr><td><div>/admin/default/about/barber_shop_2</div></td></tr></table></div></td></tr></table></div></td></tr></table></div></td></tr><tr><td><div><table><tr><td><div>web2py.com</div></td></tr><tr><td><div>False</div></td></tr><tr><td><div>#</div></td></tr><tr><td><div><table><tr><td><div><table><tr><td><div>Download</div></td></tr><tr><td><div>False</div></td></tr><tr><td><div>http://www.web2py.com/examples/default/download</div></td></tr></table></div></td></tr><tr><td><div><table><tr><td><div>Support</div></td></tr><tr><td><div>False</div></td></tr><tr><td><div>http://www.web2py.com/examples/default/support</div></td></tr></table></div></td></tr><tr><td><div><table><tr><td><div>Demo</div></td></tr><tr><td><div>False</div></td></tr><tr><td><div>http://web2py.com/demo_admin</div></td></tr></table></div></td></tr><tr><td><div><table><tr><td><div>Quick Examples</div></td></tr><tr><td><div>False</div></td></tr><tr><td><div>http://web2py.com/examples/default/examples</div></td></tr></table></div></td></tr><tr><td><div><table><tr><td><div>FAQ</div></td></tr><tr><td><div>False</div></td></tr><tr><td><div>http://web2py.com/AlterEgo</div></td></tr></table></div></td></tr><tr><td><div><table><tr><td><div>Videos</div></td></tr><tr><td><div>False</div></td></tr><tr><td><div>http://www.web2py.com/examples/default/videos/</div></td></tr></table></div></td></tr><tr><td><div><table><tr><td><div>Free Applications</div></td></tr><tr><td><div>False</div></td></tr><tr><td><div>http://web2py.com/appliances</div></td></tr></table></div></td></tr><tr><td><div><table><tr><td><div>Plugins</div></td></tr><tr><td><div>False</div></td></tr><tr><td><div>http://web2py.com/plugins</div></td></tr></table></div></td></tr><tr><td><div><table><tr><td><div>Recipes</div></td></tr><tr><td><div>False</div></td></tr><tr><td><div>http://web2pyslices.com/</div></td></tr></table></div></td></tr></table></div></td></tr></table></div></td></tr><tr><td><div><table><tr><td><div>Documentation</div></td></tr><tr><td><div>False</div></td></tr><tr><td><div>#</div></td></tr><tr><td><div><table><tr><td><div><table><tr><td><div>Online book</div></td></tr><tr><td><div>False</div></td></tr><tr><td><div>http://www.web2py.com/book</div></td></tr></table></div></td></tr><tr><td><div><table><tr><td><div>Preface</div></td></tr><tr><td><div>False</div></td></tr><tr><td><div>http://www.web2py.com/book/default/chapter/00</div></td></tr></table></div></td></tr><tr><td><div><table><tr><td><div>Introduction</div></td></tr><tr><td><div>False</div></td></tr><tr><td><div>http://www.web2py.com/book/default/chapter/01</div></td></tr></table></div></td></tr><tr><td><div><table><tr><td><div>Python</div></td></tr><tr><td><div>False</div></td></tr><tr><td><div>http://www.web2py.com/book/default/chapter/02</div></td></tr></table></div></td></tr><tr><td><div><table><tr><td><div>Overview</div></td></tr><tr><td><div>False</div></td></tr><tr><td><div>http://www.web2py.com/book/default/chapter/03</div></td></tr></table></div></td></tr><tr><td><div><table><tr><td><div>The Core</div></td></tr><tr><td><div>False</div></td></tr><tr><td><div>http://www.web2py.com/book/default/chapter/04</div></td></tr></table></div></td></tr><tr><td><div><table><tr><td><div>The Views</div></td></tr><tr><td><div>False</div></td></tr><tr><td><div>http://www.web2py.com/book/default/chapter/05</div></td></tr></table></div></td></tr><tr><td><div><table><tr><td><div>Database</div></td></tr><tr><td><div>False</div></td></tr><tr><td><div>http://www.web2py.com/book/default/chapter/06</div></td></tr></table></div></td></tr><tr><td><div><table><tr><td><div>Forms and Validators</div></td></tr><tr><td><div>False</div></td></tr><tr><td><div>http://www.web2py.com/book/default/chapter/07</div></td></tr></table></div></td></tr><tr><td><div><table><tr><td><div>Email and SMS</div></td></tr><tr><td><div>False</div></td></tr><tr><td><div>http://www.web2py.com/book/default/chapter/08</div></td></tr></table></div></td></tr><tr><td><div><table><tr><td><div>Access Control</div></td></tr><tr><td><div>False</div></td></tr><tr><td><div>http://www.web2py.com/book/default/chapter/09</div></td></tr></table></div></td></tr><tr><td><div><table><tr><td><div>Services</div></td></tr><tr><td><div>False</div></td></tr><tr><td><div>http://www.web2py.com/book/default/chapter/10</div></td></tr></table></div></td></tr><tr><td><div><table><tr><td><div>Ajax Recipes</div></td></tr><tr><td><div>False</div></td></tr><tr><td><div>http://www.web2py.com/book/default/chapter/11</div></td></tr></table></div></td></tr><tr><td><div><table><tr><td><div>Components and Plugins</div></td></tr><tr><td><div>False</div></td></tr><tr><td><div>http://www.web2py.com/book/default/chapter/12</div></td></tr></table></div></td></tr><tr><td><div><table><tr><td><div>Deployment Recipes</div></td></tr><tr><td><div>False</div></td></tr><tr><td><div>http://www.web2py.com/book/default/chapter/13</div></td></tr></table></div></td></tr><tr><td><div><table><tr><td><div>Other Recipes</div></td></tr><tr><td><div>False</div></td></tr><tr><td><div>http://www.web2py.com/book/default/chapter/14</div></td></tr></table></div></td></tr><tr><td><div><table><tr><td><div>Helping web2py</div></td></tr><tr><td><div>False</div></td></tr><tr><td><div>http://www.web2py.com/book/default/chapter/15</div></td></tr></table></div></td></tr><tr><td><div><table><tr><td><div>Buy web2py\'s book</div></td></tr><tr><td><div>False</div></td></tr><tr><td><div>http://stores.lulu.com/web2py</div></td></tr></table></div></td></tr></table></div></td></tr></table></div></td></tr><tr><td><div><table><tr><td><div>Community</div></td></tr><tr><td><div>False</div></td></tr><tr><td><div>None</div></td></tr><tr><td><div><table><tr><td><div><table><tr><td><div>Groups</div></td></tr><tr><td><div>False</div></td></tr><tr><td><div>http://www.web2py.com/examples/default/usergroups</div></td></tr></table></div></td></tr><tr><td><div><table><tr><td><div>Twitter</div></td></tr><tr><td><div>False</div></td></tr><tr><td><div>http://twitter.com/web2py</div></td></tr></table></div></td></tr><tr><td><div><table><tr><td><div>Live Chat</div></td></tr><tr><td><div>False</div></td></tr><tr><td><div>http://webchat.freenode.net/?channels=web2py</div></td></tr></table></div></td></tr></table></div></td></tr></table></div></td></tr></table></div></td></tr><tr><td style="font-weight:bold;vertical-align:top;">meta</td><td style="vertical-align:top;">:</td><td><div><table><tr><td style="font-weight:bold;vertical-align:top;">author</td><td style="vertical-align:top;">:</td><td><div>Your Name &lt;you@example.com&gt;</div></td></tr><tr><td style="font-weight:bold;vertical-align:top;">description</td><td style="vertical-align:top;">:</td><td><div>a cool new app</div></td></tr><tr><td style="font-weight:bold;vertical-align:top;">generator</td><td style="vertical-align:top;">:</td><td><div>Web2py Web Framework</div></td></tr><tr><td style="font-weight:bold;vertical-align:top;">keywords</td><td style="vertical-align:top;">:</td><td><div><table><tr><td><div>web2py</div></td></tr><tr><td><div>python</div></td></tr><tr><td><div>framework</div></td></tr></table></div></td></tr></table></div></td></tr><tr><td style="font-weight:bold;vertical-align:top;">models_to_run</td><td style="vertical-align:top;">:</td><td><div><table><tr><td><div>^\\w+\\.py$</div></td></tr><tr><td><div>^api/\\w+\\.py$</div></td></tr><tr><td><div>^api/make_appointment_api/\\w+\\.py$</div></td></tr></table></div></td></tr><tr><td style="font-weight:bold;vertical-align:top;">postprocessing</td><td style="vertical-align:top;">:</td><td><div><table></table></div></td></tr><tr><td style="font-weight:bold;vertical-align:top;">session_client</td><td style="vertical-align:top;">:</td><td><div>127.0.0.1</div></td></tr><tr><td style="font-weight:bold;vertical-align:top;">session_cookie_compression_level</td><td style="vertical-align:top;">:</td><td><div>None</div></td></tr><tr><td style="font-weight:bold;vertical-align:top;">session_cookie_expires</td><td style="vertical-align:top;">:</td><td><div>None</div></td></tr><tr><td style="font-weight:bold;vertical-align:top;">session_data_name</td><td style="vertical-align:top;">:</td><td><div>session_data_barber_shop_2</div></td></tr><tr><td style="font-weight:bold;vertical-align:top;">session_file</td><td style="vertical-align:top;">:</td><td><div>&lt;open file &#x27;/home/ryan/web2py/applications/barber_shop_2/sessions/05c/1bf/127.0.0.1-bb0bc4f2-823e-4130-864d-2b98f56a7a14&#x27;, mode &#x27;rb+&#x27; at 0x7f3c8c419390&gt;</div></td></tr><tr><td style="font-weight:bold;vertical-align:top;">session_filename</td><td style="vertical-align:top;">:</td><td><div>/home/ryan/web2py/applications/barber_shop_2/sessions/127.0.0.1-bb0bc4f2-823e-4130-864d-2b98f56a7a14</div></td></tr><tr><td style="font-weight:bold;vertical-align:top;">session_hash</td><td style="vertical-align:top;">:</td><td><div>52e8f90ea0aab99ddcf4dc787d826bb4</div></td></tr><tr><td style="font-weight:bold;vertical-align:top;">session_id</td><td style="vertical-align:top;">:</td><td><div>127.0.0.1-bb0bc4f2-823e-4130-864d-2b98f56a7a14</div></td></tr><tr><td style="font-weight:bold;vertical-align:top;">session_id_name</td><td style="vertical-align:top;">:</td><td><div>session_id_barber_shop_2</div></td></tr><tr><td style="font-weight:bold;vertical-align:top;">session_locked</td><td style="vertical-align:top;">:</td><td><div>True</div></td></tr><tr><td style="font-weight:bold;vertical-align:top;">session_masterapp</td><td style="vertical-align:top;">:</td><td><div>barber_shop_2</div></td></tr><tr><td style="font-weight:bold;vertical-align:top;">session_new</td><td style="vertical-align:top;">:</td><td><div>False</div></td></tr><tr><td style="font-weight:bold;vertical-align:top;">session_storage_type</td><td style="vertical-align:top;">:</td><td><div>file</div></td></tr><tr><td style="font-weight:bold;vertical-align:top;">show_toolbar</td><td style="vertical-align:top;">:</td><td><div>False</div></td></tr><tr><td style="font-weight:bold;vertical-align:top;">status</td><td style="vertical-align:top;">:</td><td><div>200</div></td></tr><tr><td style="font-weight:bold;vertical-align:top;">view</td><td style="vertical-align:top;">:</td><td><div>api/make_appointment_api.html</div></td></tr></table></div>'
tRp445
sS'locals'
p446
(dp447
S'self'
p448
S'<pydal.representers.sqlite.SQLiteRepresenter object>'
p449
sS'referenced'
p450
S"'timeslots'"
p451
sS'value'
p452
S"'${time.id}'"
p453
sssS'traceback'
p454
S'Traceback (most recent call last):\n  File "/home/ryan/web2py/gluon/restricted.py", line 219, in restricted\n    exec(ccode, environment)\n  File "/home/ryan/web2py/applications/barber_shop_2/controllers/api.py", line 74, in <module>\n  File "/home/ryan/web2py/gluon/globals.py", line 421, in <lambda>\n    self._caller = lambda f: f()\n  File "/home/ryan/web2py/applications/barber_shop_2/controllers/api.py", line 7, in make_appointment_api\n    db.appointments.insert(barber_id=request.vars.barber_id, appointment_date=request.vars.appointment_date, timeslot_id=request.vars.timeslot_id, user_id=request.vars.user_id)\n  File "/home/ryan/web2py/gluon/packages/dal/pydal/objects.py", line 766, in insert\n    ret = self._db._adapter.insert(self, row.op_values())\n  File "/home/ryan/web2py/gluon/packages/dal/pydal/adapters/base.py", line 480, in insert\n    query = self._insert(table, fields)\n  File "/home/ryan/web2py/gluon/packages/dal/pydal/adapters/base.py", line 476, in _insert\n    \',\'.join(self.expand(v, f.type) for f, v in fields))\n  File "/home/ryan/web2py/gluon/packages/dal/pydal/adapters/base.py", line 476, in <genexpr>\n    \',\'.join(self.expand(v, f.type) for f, v in fields))\n  File "/home/ryan/web2py/gluon/packages/dal/pydal/adapters/base.py", line 445, in _expand\n    rv = self.represent(expression, field_type)\n  File "/home/ryan/web2py/gluon/packages/dal/pydal/adapters/base.py", line 382, in represent\n    return super(SQLAdapter, self).represent(obj, field_type)\n  File "/home/ryan/web2py/gluon/packages/dal/pydal/adapters/base.py", line 336, in represent\n    return self.representer.represent(obj, field_type)\n  File "/home/ryan/web2py/gluon/packages/dal/pydal/representers/__init__.py", line 251, in represent\n    rv = self.get_representer_for_type(field_type)(rv, field_type)\n  File "/home/ryan/web2py/gluon/packages/dal/pydal/representers/__init__.py", line 139, in __call__\n    return self.adapt(self.call(value, field_type))\n  File "/home/ryan/web2py/gluon/packages/dal/pydal/representers/__init__.py", line 133, in _call_with_extras\n    return self.inner_call(value, **extras)\n  File "/home/ryan/web2py/gluon/packages/dal/pydal/representers/__init__.py", line 124, in _inner_call\n    return self.obj.f(self.representer, value, **kwargs)\n  File "/home/ryan/web2py/gluon/packages/dal/pydal/representers/base.py", line 141, in _reference\n    return str(long(value))\nValueError: invalid literal for long() with base 10: \'${time.id}\'\n'
p455
s.